target datalayout = "e-m:e-p270:32:32-p271:32:32-p272:64:64-i64:64-i128:128-f80:128-n8:16:32:64-S128"
target triple = "x86_64-pc-linux-gnu"

%struct.conf_method_st = type { ptr, ptr, ptr, ptr, ptr, ptr, ptr, ptr, ptr, ptr }
%struct.conf_st = type { ptr, ptr, ptr, i32, i32, ptr, ptr }

@.str.1 = private unnamed_addr constant [34 x i8] c"../openssl/crypto/conf/conf_lib.c\00", align 1
@__func__.NCONF_dump_fp = private unnamed_addr constant [14 x i8] c"NCONF_dump_fp\00", align 1
@__func__.NCONF_dump_bio = private unnamed_addr constant [15 x i8] c"NCONF_dump_bio\00", align 1

; Function Attrs: nounwind uwtable
define i32 @NCONF_dump_bio(ptr noundef %0, ptr noundef %1) #0 {
  %3 = alloca i32, align 4
  %4 = alloca ptr, align 8
  %5 = alloca ptr, align 8
  store ptr %0, ptr %4, align 8, !tbaa !3
  store ptr %1, ptr %5, align 8, !tbaa !22
  %6 = load ptr, ptr %4, align 8, !tbaa !3
  %7 = icmp eq ptr %6, null
  br i1 %7, label %8, label %9

8:                                                ; preds = %2
  call void @ERR_new()
  call void @ERR_set_debug(ptr noundef @.str.1, i32 noundef 399, ptr noundef @__func__.NCONF_dump_bio)
  call void (i32, i32, ptr, ...) @ERR_set_error(i32 noundef 14, i32 noundef 105, ptr noundef null)
  store i32 0, ptr %3, align 4
  br label %18

9:                                                ; preds = %2
  %10 = load ptr, ptr %4, align 8, !tbaa !3
  %11 = getelementptr inbounds nuw %struct.conf_st, ptr %10, i32 0, i32 0
  %12 = load ptr, ptr %11, align 8, !tbaa !27
  %13 = getelementptr inbounds nuw %struct.conf_method_st, ptr %12, i32 0, i32 6
  %14 = load ptr, ptr %13, align 8, !tbaa !38
  %15 = load ptr, ptr %4, align 8, !tbaa !3
  %16 = load ptr, ptr %5, align 8, !tbaa !22
  %17 = call i32 %14(ptr noundef %15, ptr noundef %16)
  store i32 %17, ptr %3, align 4
  br label %18

18:                                               ; preds = %9, %8
  %19 = load i32, ptr %3, align 4
  ret i32 %19
}

; Function Attrs: nounwind uwtable
define i32 @NCONF_dump_fp(ptr noundef %0, ptr noundef %1) #0 {
  %3 = alloca i32, align 4
  %4 = alloca ptr, align 8
  %5 = alloca ptr, align 8
  %6 = alloca ptr, align 8
  %7 = alloca i32, align 4
  %8 = alloca i32, align 4
  store ptr %0, ptr %4, align 8, !tbaa !3
  store ptr %1, ptr %5, align 8, !tbaa !25
  call void @llvm.lifetime.start.p0(i64 8, ptr %6) #8
  call void @llvm.lifetime.start.p0(i64 4, ptr %7) #8
  %9 = load ptr, ptr %5, align 8, !tbaa !25
  %10 = call ptr @BIO_new_fp(ptr noundef %9, i32 noundef 0)
  store ptr %10, ptr %6, align 8, !tbaa !22
  %11 = icmp eq ptr %10, null
  br i1 %11, label %12, label %13

12:                                               ; preds = %2
  call void @ERR_new()
  call void @ERR_set_debug(ptr noundef @.str.1, i32 noundef 387, ptr noundef @__func__.NCONF_dump_fp)
  call void (i32, i32, ptr, ...) @ERR_set_error(i32 noundef 14, i32 noundef 524295, ptr noundef null)
  store i32 0, ptr %3, align 4
  store i32 1, ptr %8, align 4
  br label %20

13:                                               ; preds = %2
  %14 = load ptr, ptr %4, align 8, !tbaa !3
  %15 = load ptr, ptr %6, align 8, !tbaa !22
  %16 = call i32 @NCONF_dump_bio(ptr noundef %14, ptr noundef %15)
  store i32 %16, ptr %7, align 4, !tbaa !24
  %17 = load ptr, ptr %6, align 8, !tbaa !22
  %18 = call i32 @BIO_free(ptr noundef %17)
  %19 = load i32, ptr %7, align 4, !tbaa !24
  store i32 %19, ptr %3, align 4
  store i32 1, ptr %8, align 4
  br label %20

20:                                               ; preds = %13, %12
  call void @llvm.lifetime.end.p0(i64 4, ptr %7) #8
  call void @llvm.lifetime.end.p0(i64 8, ptr %6) #8
  %21 = load i32, ptr %3, align 4
  ret i32 %21
}