; Function Attrs: nounwind uwtable
define i32 @NCONF_dump_fp(ptr noundef %0, ptr noundef %1) local_unnamed_addr #0 {
  %3 = tail call ptr @BIO_new_fp(ptr noundef %1, i32 noundef 0) #15
  %4 = icmp eq ptr %3, null
  br i1 %4, label %5, label %6

5:                                                ; preds = %2
  tail call void @ERR_new() #15
  tail call void @ERR_set_debug(ptr noundef nonnull @.str.1, i32 noundef 387, ptr noundef nonnull @__func__.NCONF_dump_fp) #15
  tail call void (i32, i32, ptr, ...) @ERR_set_error(i32 noundef 14, i32 noundef 524295, ptr noundef null) #15
  br label %15

6:                                                ; preds = %2
  %7 = icmp eq ptr %0, null
  br i1 %7, label %8, label %9

8:                                                ; preds = %6
  tail call void @ERR_new() #15
  tail call void @ERR_set_debug(ptr noundef nonnull @.str.1, i32 noundef 399, ptr noundef nonnull @__func__.NCONF_dump_bio) #15
  tail call void (i32, i32, ptr, ...) @ERR_set_error(i32 noundef 14, i32 noundef 105, ptr noundef null) #15
  br label %NCONF_dump_bio.exit

9:                                                ; preds = %6
  %10 = load ptr, ptr %0, align 8, !tbaa !16
  %11 = getelementptr inbounds nuw i8, ptr %10, i64 48
  %12 = load ptr, ptr %11, align 8, !tbaa !26
  %13 = tail call i32 %12(ptr noundef nonnull %0, ptr noundef nonnull %3) #15
  br label %NCONF_dump_bio.exit

NCONF_dump_bio.exit:                              ; preds = %8, %9
  %.0.i = phi i32 [ 0, %8 ], [ %13, %9 ]
  %14 = tail call i32 @BIO_free(ptr noundef nonnull %3) #15
  br label %15

15:                                               ; preds = %NCONF_dump_bio.exit, %5
  %.0 = phi i32 [ 0, %5 ], [ %.0.i, %NCONF_dump_bio.exit ]
  ret i32 %.0
}